target datalayout = "e-m:e-p270:32:32-p271:32:32-p272:64:64-i64:64-i128:128-f80:128-n8:16:32:64-S128"
target triple = "x86_64-unknown-linux-gnu"

%"class.node::performance::PerformanceState" = type <{ %"class.node::AliasedBufferBase", %"class.node::AliasedBufferBase.0", %"class.node::AliasedBufferBase.3", i64, i16, [6 x i8] }>
%"class.node::AliasedBufferBase" = type { %"class.node::MemoryRetainer", ptr, i64, i64, ptr, %"class.v8::Global", ptr }
%"class.node::MemoryRetainer" = type { ptr }
%"class.v8::Global" = type { %"class.v8::PersistentBase" }
%"class.v8::PersistentBase" = type { %"class.v8::IndirectHandleBase" }
%"class.v8::IndirectHandleBase" = type { ptr }
%"class.node::AliasedBufferBase.0" = type { %"class.node::MemoryRetainer", ptr, i64, i64, ptr, %"class.v8::Global.1", ptr }
%"class.v8::Global.1" = type { %"class.v8::PersistentBase.2" }
%"class.v8::PersistentBase.2" = type { %"class.v8::IndirectHandleBase" }
%"class.node::AliasedBufferBase.3" = type { %"class.node::MemoryRetainer", ptr, i64, i64, ptr, %"class.v8::Global.4", ptr }
%"class.v8::Global.4" = type { %"class.v8::PersistentBase.5" }
%"class.v8::PersistentBase.5" = type { %"class.v8::IndirectHandleBase" }
%"class.node::AliasedBufferBase<double, v8::Float64Array>::Reference" = type { ptr, i64 }

; Function Attrs: mustprogress nounwind uwtable
define linkonce_odr dso_local void @_ZN4node17AliasedBufferBaseIdN2v812Float64ArrayEE8SetValueEmd(ptr noundef nonnull align 8 dereferenceable(56) %this, i64 noundef %index, double noundef %value) #4 comdat align 2 {
entry:
  %this.addr = alloca ptr, align 8
  %index.addr = alloca i64, align 8
  %value.addr = alloca double, align 8
  store ptr %this, ptr %this.addr, align 8
  store i64 %index, ptr %index.addr, align 8
  store double %value, ptr %value.addr, align 8
  %this1 = load ptr, ptr %this.addr, align 8
  %0 = load double, ptr %value.addr, align 8
  %buffer_ = getelementptr inbounds %"class.node::AliasedBufferBase.0", ptr %this1, i32 0, i32 4
  %1 = load ptr, ptr %buffer_, align 8
  %2 = load i64, ptr %index.addr, align 8
  %arrayidx = getelementptr inbounds double, ptr %1, i64 %2
  store double %0, ptr %arrayidx, align 8
  ret void
}

; Function Attrs: mustprogress nounwind uwtable
define linkonce_odr dso_local void @_ZN4node17AliasedBufferBaseIdN2v812Float64ArrayEE9ReferenceC2EPS3_m(ptr noundef nonnull align 8 dereferenceable(16) %this, ptr noundef %aliased_buffer, i64 noundef %index) unnamed_addr #4 comdat align 2 {
entry:
  %this.addr = alloca ptr, align 8
  %aliased_buffer.addr = alloca ptr, align 8
  %index.addr = alloca i64, align 8
  store ptr %this, ptr %this.addr, align 8
  store ptr %aliased_buffer, ptr %aliased_buffer.addr, align 8
  store i64 %index, ptr %index.addr, align 8
  %this1 = load ptr, ptr %this.addr, align 8
  %aliased_buffer_ = getelementptr inbounds %"class.node::AliasedBufferBase<double, v8::Float64Array>::Reference", ptr %this1, i32 0, i32 0
  %0 = load ptr, ptr %aliased_buffer.addr, align 8
  store ptr %0, ptr %aliased_buffer_, align 8
  %index_ = getelementptr inbounds %"class.node::AliasedBufferBase<double, v8::Float64Array>::Reference", ptr %this1, i32 0, i32 1
  %1 = load i64, ptr %index.addr, align 8
  store i64 %1, ptr %index_, align 8
  ret void
}

; Function Attrs: mustprogress nounwind uwtable
define linkonce_odr dso_local noundef nonnull align 8 dereferenceable(16) ptr @_ZN4node17AliasedBufferBaseIdN2v812Float64ArrayEE9ReferenceaSERKd(ptr noundef nonnull align 8 dereferenceable(16) %this, ptr noundef nonnull align 8 dereferenceable(8) %val) #4 comdat align 2 {
entry:
  %this.addr = alloca ptr, align 8
  %val.addr = alloca ptr, align 8
  store ptr %this, ptr %this.addr, align 8
  store ptr %val, ptr %val.addr, align 8
  %this1 = load ptr, ptr %this.addr, align 8
  %aliased_buffer_ = getelementptr inbounds %"class.node::AliasedBufferBase<double, v8::Float64Array>::Reference", ptr %this1, i32 0, i32 0
  %0 = load ptr, ptr %aliased_buffer_, align 8
  %index_ = getelementptr inbounds %"class.node::AliasedBufferBase<double, v8::Float64Array>::Reference", ptr %this1, i32 0, i32 1
  %1 = load i64, ptr %index_, align 8
  %2 = load ptr, ptr %val.addr, align 8
  %3 = load double, ptr %2, align 8
  call void @_ZN4node17AliasedBufferBaseIdN2v812Float64ArrayEE8SetValueEmd(ptr noundef nonnull align 8 dereferenceable(56) %0, i64 noundef %1, double noundef %3)
  ret ptr %this1
}

; Function Attrs: mustprogress nounwind uwtable
define linkonce_odr dso_local void @_ZN4node17AliasedBufferBaseIdN2v812Float64ArrayEEixEm(ptr noalias sret(%"class.node::AliasedBufferBase<double, v8::Float64Array>::Reference") align 8 %agg.result, ptr noundef nonnull align 8 dereferenceable(56) %this, i64 noundef %index) #4 comdat align 2 {
entry:
  %result.ptr = alloca ptr, align 8
  %this.addr = alloca ptr, align 8
  %index.addr = alloca i64, align 8
  store ptr %agg.result, ptr %result.ptr, align 8
  store ptr %this, ptr %this.addr, align 8
  store i64 %index, ptr %index.addr, align 8
  %this1 = load ptr, ptr %this.addr, align 8
  %0 = load i64, ptr %index.addr, align 8
  call void @_ZN4node17AliasedBufferBaseIdN2v812Float64ArrayEE9ReferenceC2EPS3_m(ptr noundef nonnull align 8 dereferenceable(16) %agg.result, ptr noundef %this1, i64 noundef %0)
  ret void
}

; Function Attrs: mustprogress nounwind uwtable
define linkonce_odr dso_local noundef i64 @_ZNK4node17AliasedBufferBaseIdN2v812Float64ArrayEE6LengthEv(ptr noundef nonnull align 8 dereferenceable(56) %this) #4 comdat align 2 {
entry:
  %this.addr = alloca ptr, align 8
  store ptr %this, ptr %this.addr, align 8
  %this1 = load ptr, ptr %this.addr, align 8
  %count_ = getelementptr inbounds %"class.node::AliasedBufferBase.0", ptr %this1, i32 0, i32 2
  %0 = load i64, ptr %count_, align 8
  ret i64 %0
}

; Function Attrs: mustprogress nounwind uwtable
define dso_local void @_ZN4node11performance16PerformanceState15ResetMilestonesEv(ptr noundef nonnull align 8 dereferenceable(178) %this) #4 align 2 {
entry:
  %this.addr = alloca ptr, align 8
  %milestones_length = alloca i64, align 8
  %i = alloca i64, align 8
  %ref.tmp = alloca double, align 8
  %ref.tmp2 = alloca %"class.node::AliasedBufferBase<double, v8::Float64Array>::Reference", align 8
  store ptr %this, ptr %this.addr, align 8
  %this1 = load ptr, ptr %this.addr, align 8
  %milestones = getelementptr inbounds %"class.node::performance::PerformanceState", ptr %this1, i32 0, i32 1
  %call = call noundef i64 @_ZNK4node17AliasedBufferBaseIdN2v812Float64ArrayEE6LengthEv(ptr noundef nonnull align 8 dereferenceable(56) %milestones)
  store i64 %call, ptr %milestones_length, align 8
  store i64 0, ptr %i, align 8
  br label %for.cond

for.cond:                                         ; preds = %for.inc, %entry
  %0 = load i64, ptr %i, align 8
  %1 = load i64, ptr %milestones_length, align 8
  %cmp = icmp ult i64 %0, %1
  br i1 %cmp, label %for.body, label %for.end

for.body:                                         ; preds = %for.cond
  store double -1.000000e+00, ptr %ref.tmp, align 8
  %milestones3 = getelementptr inbounds %"class.node::performance::PerformanceState", ptr %this1, i32 0, i32 1
  %2 = load i64, ptr %i, align 8
  call void @_ZN4node17AliasedBufferBaseIdN2v812Float64ArrayEEixEm(ptr sret(%"class.node::AliasedBufferBase<double, v8::Float64Array>::Reference") align 8 %ref.tmp2, ptr noundef nonnull align 8 dereferenceable(56) %milestones3, i64 noundef %2)
  %call4 = call noundef nonnull align 8 dereferenceable(16) ptr @_ZN4node17AliasedBufferBaseIdN2v812Float64ArrayEE9ReferenceaSERKd(ptr noundef nonnull align 8 dereferenceable(16) %ref.tmp2, ptr noundef nonnull align 8 dereferenceable(8) %ref.tmp)
  br label %for.inc

for.inc:                                          ; preds = %for.body
  %3 = load i64, ptr %i, align 8
  %inc = add i64 %3, 1
  store i64 %inc, ptr %i, align 8
  br label %for.cond, !llvm.loop !5

for.end:                                          ; preds = %for.cond
  ret void
}