; Function Attrs: mustprogress nofree norecurse nosync nounwind memory(write, argmem: readwrite, inaccessiblemem: none) uwtable
define dso_local void @_ZN4node11performance16PerformanceState15ResetMilestonesEv(ptr nocapture noundef nonnull readonly align 8 dereferenceable(178) %this) local_unnamed_addr #4 align 2 {
entry:
  %count_.i = getelementptr inbounds i8, ptr %this, i64 72
  %0 = load i64, ptr %count_.i, align 8
  %cmp3.not = icmp eq i64 %0, 0
  br i1 %cmp3.not, label %for.end, label %for.body.lr.ph

for.body.lr.ph:                                   ; preds = %entry
  %buffer_.i.i = getelementptr inbounds i8, ptr %this, i64 88
  br label %for.body

for.body:                                         ; preds = %for.body.lr.ph, %for.body
  %i.04 = phi i64 [ 0, %for.body.lr.ph ], [ %inc, %for.body ]
  %1 = load ptr, ptr %buffer_.i.i, align 8
  %arrayidx.i.i = getelementptr inbounds double, ptr %1, i64 %i.04
  store double -1.000000e+00, ptr %arrayidx.i.i, align 8
  %inc = add nuw i64 %i.04, 1
  %exitcond.not = icmp eq i64 %inc, %0
  br i1 %exitcond.not, label %for.end, label %for.body, !llvm.loop !5

for.end:                                          ; preds = %for.body, %entry
  ret void
}